; Function Attrs: mustprogress uwtable
define noundef nonnull align 8 dereferenceable(8) ptr @_ZN5arrow4utillsERSoNS0_7Float16E(ptr noundef nonnull align 8 dereferenceable(8) %0, i16 %1) local_unnamed_addr #2 {
  %.signext.i.i = sext i16 %1 to i32
  %3 = and i32 %.signext.i.i, -2147483648
  %4 = and i16 %1, 31744
  %5 = and i16 %1, 1023
  switch i16 %4, label %26 [
    i16 31744, label %6
    i16 0, label %11
  ]

6:                                                ; preds = %2
  %7 = zext i16 %1 to i32
  %8 = shl nuw nsw i32 %7, 13
  %9 = or disjoint i32 %3, %8
  %10 = or i32 %9, 2139095040
  br label %_ZNK5arrow4util7Float167ToFloatEv.exit

11:                                               ; preds = %2
  %12 = icmp eq i16 %5, 0
  br i1 %12, label %_ZNK5arrow4util7Float167ToFloatEv.exit, label %13

13:                                               ; preds = %11
  %14 = shl nuw nsw i16 %5, 1
  %15 = zext nneg i16 %14 to i32
  %16 = icmp samesign ult i16 %5, 512
  br i1 %16, label %.lr.ph.i.i, label %._crit_edge.i.i

.lr.ph.i.i:                                       ; preds = %13, %.lr.ph.i.i
  %.024.i.i = phi i32 [ %18, %.lr.ph.i.i ], [ %15, %13 ]
  %.02023.i.i = phi i32 [ %17, %.lr.ph.i.i ], [ 112, %13 ]
  %17 = add i32 %.02023.i.i, -1
  %18 = shl i32 %.024.i.i, 1
  %19 = and i32 %.024.i.i, 512
  %20 = icmp eq i32 %19, 0
  br i1 %20, label %.lr.ph.i.i, label %._crit_edge.loopexit.i.i, !llvm.loop !8

._crit_edge.loopexit.i.i:                         ; preds = %.lr.ph.i.i
  %21 = shl i32 %17, 23
  br label %._crit_edge.i.i

._crit_edge.i.i:                                  ; preds = %._crit_edge.loopexit.i.i, %13
  %.020.lcssa.i.i = phi i32 [ 939524096, %13 ], [ %21, %._crit_edge.loopexit.i.i ]
  %.0.lcssa.i.i = phi i32 [ %15, %13 ], [ %18, %._crit_edge.loopexit.i.i ]
  %22 = shl i32 %.0.lcssa.i.i, 13
  %23 = and i32 %22, 8372224
  %24 = or disjoint i32 %.020.lcssa.i.i, %23
  %25 = or i32 %24, %3
  br label %_ZNK5arrow4util7Float167ToFloatEv.exit

26:                                               ; preds = %2
  %27 = and i16 %1, 32767
  %28 = zext nneg i16 %27 to i32
  %29 = shl nuw nsw i32 %28, 13
  %30 = add nuw nsw i32 %29, 939524096
  %31 = or disjoint i32 %30, %3
  br label %_ZNK5arrow4util7Float167ToFloatEv.exit

_ZNK5arrow4util7Float167ToFloatEv.exit:           ; preds = %6, %11, %._crit_edge.i.i, %26
  %.021.i.i = phi i32 [ %31, %26 ], [ %25, %._crit_edge.i.i ], [ %10, %6 ], [ %3, %11 ]
  %32 = bitcast i32 %.021.i.i to float
  %33 = fpext float %32 to double
  %34 = tail call noundef nonnull align 8 dereferenceable(8) ptr @_ZNSo9_M_insertIdEERSoT_(ptr noundef nonnull align 8 dereferenceable(8) %0, double noundef %33)
  ret ptr %34
}